target datalayout = "e-m:e-p270:32:32-p271:32:32-p272:64:64-i64:64-i128:128-f80:128-n8:16:32:64-S128"
target triple = "x86_64-pc-linux-gnu"

%struct.Hop_Man_t_ = type { ptr, ptr, ptr, ptr, %struct.Hop_Obj_t_, [6 x i32], i32, i32, ptr, i32, ptr, i32, i32, i32, ptr, ptr, ptr, i64, i64 }
%struct.Hop_Obj_t_ = type { %union.anon, %union.anon.0, ptr, ptr, i32, i32 }
%union.anon = type { ptr }
%union.anon.0 = type { ptr }

@.str.4 = private unnamed_addr constant [16 x i8] c"PI/PO = %d/%d. \00", align 1
@.str.5 = private unnamed_addr constant [10 x i8] c"A = %7d. \00", align 1
@.str.6 = private unnamed_addr constant [10 x i8] c"X = %5d. \00", align 1
@.str.7 = private unnamed_addr constant [12 x i8] c"Cre = %7d. \00", align 1
@.str.8 = private unnamed_addr constant [12 x i8] c"Del = %7d. \00", align 1
@.str.9 = private unnamed_addr constant [12 x i8] c"Lev = %3d. \00", align 1
@.str.10 = private unnamed_addr constant [2 x i8] c"\0A\00", align 1

; Function Attrs: inlinehint nounwind uwtable
define internal i32 @Hop_ManExorNum(ptr noundef %0) #4 {
  %2 = alloca ptr, align 8
  store ptr %0, ptr %2, align 8, !tbaa !3
  %3 = load ptr, ptr %2, align 8, !tbaa !3
  %4 = getelementptr inbounds nuw %struct.Hop_Man_t_, ptr %3, i32 0, i32 5
  %5 = getelementptr inbounds [6 x i32], ptr %4, i64 0, i64 5
  %6 = load i32, ptr %5, align 4, !tbaa !24
  ret i32 %6
}

; Function Attrs: inlinehint nounwind uwtable
define internal i32 @Hop_ManAndNum(ptr noundef %0) #4 {
  %2 = alloca ptr, align 8
  store ptr %0, ptr %2, align 8, !tbaa !3
  %3 = load ptr, ptr %2, align 8, !tbaa !3
  %4 = getelementptr inbounds nuw %struct.Hop_Man_t_, ptr %3, i32 0, i32 5
  %5 = getelementptr inbounds [6 x i32], ptr %4, i64 0, i64 4
  %6 = load i32, ptr %5, align 8, !tbaa !24
  ret i32 %6
}

; Function Attrs: inlinehint nounwind uwtable
define internal i32 @Hop_ManPoNum(ptr noundef %0) #4 {
  %2 = alloca ptr, align 8
  store ptr %0, ptr %2, align 8, !tbaa !3
  %3 = load ptr, ptr %2, align 8, !tbaa !3
  %4 = getelementptr inbounds nuw %struct.Hop_Man_t_, ptr %3, i32 0, i32 5
  %5 = getelementptr inbounds [6 x i32], ptr %4, i64 0, i64 3
  %6 = load i32, ptr %5, align 4, !tbaa !24
  ret i32 %6
}

; Function Attrs: inlinehint nounwind uwtable
define internal i32 @Hop_ManPiNum(ptr noundef %0) #4 {
  %2 = alloca ptr, align 8
  store ptr %0, ptr %2, align 8, !tbaa !3
  %3 = load ptr, ptr %2, align 8, !tbaa !3
  %4 = getelementptr inbounds nuw %struct.Hop_Man_t_, ptr %3, i32 0, i32 5
  %5 = getelementptr inbounds [6 x i32], ptr %4, i64 0, i64 2
  %6 = load i32, ptr %5, align 8, !tbaa !24
  ret i32 %6
}

; Function Attrs: nounwind uwtable
define void @Hop_ManPrintStats(ptr noundef %0) #0 {
  %2 = alloca ptr, align 8
  store ptr %0, ptr %2, align 8, !tbaa !3
  %3 = load ptr, ptr %2, align 8, !tbaa !3
  %4 = call i32 @Hop_ManPiNum(ptr noundef %3)
  %5 = load ptr, ptr %2, align 8, !tbaa !3
  %6 = call i32 @Hop_ManPoNum(ptr noundef %5)
  %7 = call i32 (ptr, ...) @printf(ptr noundef @.str.4, i32 noundef %4, i32 noundef %6)
  %8 = load ptr, ptr %2, align 8, !tbaa !3
  %9 = call i32 @Hop_ManAndNum(ptr noundef %8)
  %10 = call i32 (ptr, ...) @printf(ptr noundef @.str.5, i32 noundef %9)
  %11 = load ptr, ptr %2, align 8, !tbaa !3
  %12 = call i32 @Hop_ManExorNum(ptr noundef %11)
  %13 = call i32 (ptr, ...) @printf(ptr noundef @.str.6, i32 noundef %12)
  %14 = load ptr, ptr %2, align 8, !tbaa !3
  %15 = getelementptr inbounds nuw %struct.Hop_Man_t_, ptr %14, i32 0, i32 6
  %16 = load i32, ptr %15, align 8, !tbaa !21
  %17 = call i32 (ptr, ...) @printf(ptr noundef @.str.7, i32 noundef %16)
  %18 = load ptr, ptr %2, align 8, !tbaa !3
  %19 = getelementptr inbounds nuw %struct.Hop_Man_t_, ptr %18, i32 0, i32 7
  %20 = load i32, ptr %19, align 4, !tbaa !48
  %21 = call i32 (ptr, ...) @printf(ptr noundef @.str.8, i32 noundef %20)
  %22 = load ptr, ptr %2, align 8, !tbaa !3
  %23 = call i32 @Hop_ManCountLevels(ptr noundef %22)
  %24 = call i32 (ptr, ...) @printf(ptr noundef @.str.9, i32 noundef %23)
  %25 = call i32 (ptr, ...) @printf(ptr noundef @.str.10)
  ret void
}