; Function Attrs: nounwind uwtable
define void @Hop_ManPrintStats(ptr noundef %0) local_unnamed_addr #0 {
  %2 = getelementptr i8, ptr %0, i64 80
  %.val = load i32, ptr %2, align 8, !tbaa !33
  %3 = getelementptr i8, ptr %0, i64 84
  %.val7 = load i32, ptr %3, align 4, !tbaa !33
  %4 = tail call i32 (ptr, ...) @printf(ptr noundef nonnull dereferenceable(1) @.str.4, i32 noundef %.val, i32 noundef %.val7)
  %5 = getelementptr i8, ptr %0, i64 88
  %.val8 = load i32, ptr %5, align 8, !tbaa !33
  %6 = tail call i32 (ptr, ...) @printf(ptr noundef nonnull dereferenceable(1) @.str.5, i32 noundef %.val8)
  %7 = getelementptr i8, ptr %0, i64 92
  %.val9 = load i32, ptr %7, align 4, !tbaa !33
  %8 = tail call i32 (ptr, ...) @printf(ptr noundef nonnull dereferenceable(1) @.str.6, i32 noundef %.val9)
  %9 = getelementptr inbounds nuw i8, ptr %0, i64 96
  %10 = load i32, ptr %9, align 8, !tbaa !25
  %11 = tail call i32 (ptr, ...) @printf(ptr noundef nonnull dereferenceable(1) @.str.7, i32 noundef %10)
  %12 = getelementptr inbounds nuw i8, ptr %0, i64 100
  %13 = load i32, ptr %12, align 4, !tbaa !42
  %14 = tail call i32 (ptr, ...) @printf(ptr noundef nonnull dereferenceable(1) @.str.8, i32 noundef %13)
  %15 = tail call i32 @Hop_ManCountLevels(ptr noundef %0) #14
  %16 = tail call i32 (ptr, ...) @printf(ptr noundef nonnull dereferenceable(1) @.str.9, i32 noundef %15)
  %putchar = tail call i32 @putchar(i32 10)
  ret void
}